******************************************************************************
            TI ARM Clang Linker PC v4.0.2                      
******************************************************************************
>> Linked Thu May  8 10:16:07 2025

OUTPUT FILE NAME:   <mpu6050.out>
ENTRY POINT SYMBOL: "_c_int00_noargs"  address: 000043e9


MEMORY CONFIGURATION

         name            origin    length      used     unused   attr    fill
----------------------  --------  ---------  --------  --------  ----  --------
  FLASH                 00000000   00020000  00005520  0001aae0  R  X
  SRAM                  20200000   00008000  00000696  0000796a  RW X
  BCR_CONFIG            41c00000   000000ff  00000000  000000ff  R   
  BSL_CONFIG            41c00100   00000080  00000000  00000080  R   


SEGMENT ALLOCATION MAP

run origin  load origin   length   init length attrs members
----------  ----------- ---------- ----------- ----- -------
00000000    00000000    00005520   00005520    r-x
  00000000    00000000    000000c0   000000c0    r-- .intvecs
  000000c0    000000c0    00004640   00004640    r-x .text
  00004700    00004700    00000de0   00000de0    r-- .rodata
  000054e0    000054e0    00000040   00000040    r-- .cinit
20200000    20200000    00000497   00000000    rw-
  20200000    20200000    00000463   00000000    rw- .data
  20200464    20200464    00000033   00000000    rw- .bss
20207e00    20207e00    00000200   00000000    rw-
  20207e00    20207e00    00000200   00000000    rw- .stack


SECTION ALLOCATION MAP

 output                                  attributes/
section   page    origin      length       input sections
--------  ----  ----------  ----------   ----------------
.intvecs   0    00000000    000000c0     
                  00000000    000000c0     startup_mspm0g350x_ticlang.o (.intvecs)

.text      0    000000c0    00004640     
                  000000c0    000009d0     libc.a : _printfi.c.obj (.text:__TI_printfi)
                  00000a90    00000364            : e_asin.c.obj (.text.asin)
                  00000df4    000002f8            : s_atan.c.obj (.text.atan)
                  000010ec    000002b8     inv_mpu_dmp_motion_driver.o (.text.dmp_enable_feature)
                  000013a4    00000220     libc.a : _printfi.c.obj (.text._pconv_a)
                  000015c4    000001e0     mpu6050.o (.text.Read_Quad)
                  000017a4    000001dc     libc.a : _printfi.c.obj (.text._pconv_g)
                  00001980    000001d4     inv_mpu.o (.text.mpu_lp_accel_mode)
                  00001b54    000001ac     inv_mpu_dmp_motion_driver.o (.text.dmp_read_fifo)
                  00001d00    00000192     libclang_rt.builtins.a : adddf3.S.obj (.text.adddf3_subdf3)
                  00001e92    00000002     startup_mspm0g350x_ticlang.o (.text.Default_Handler)
                  00001e94    00000188     libc.a : e_atan2.c.obj (.text.atan2)
                  0000201c    00000184     inv_mpu.o (.text.mpu_load_firmware)
                  000021a0    00000170     libc.a : e_sqrt.c.obj (.text.sqrt)
                  00002310    00000150     inv_mpu.o (.text.mpu_reset_fifo)
                  00002460    0000013c     libc.a : _printfi.c.obj (.text.fcvt)
                  0000259c    00000134     inv_mpu_dmp_motion_driver.o (.text.dmp_set_tap_thresh)
                  000026d0    00000134     inv_mpu.o (.text.mpu_init)
                  00002804    00000120     libc.a : _printfi.c.obj (.text._pconv_e)
                  00002924    0000010c     libclang_rt.builtins.a : divdf3.S.obj (.text.__divdf3)
                  00002a30    00000104     inv_mpu_dmp_motion_driver.o (.text.dmp_set_orientation)
                  00002b34    000000f8     inv_mpu.o (.text.mpu_set_bypass)
                  00002c2c    000000e8     inv_mpu.o (.text.mpu_set_sample_rate)
                  00002d14    000000e4     libclang_rt.builtins.a : muldf3.S.obj (.text.__muldf3)
                  00002df8    000000e4     inv_mpu.o (.text.mpu_set_sensors)
                  00002edc    000000d8     libc.a : s_scalbn.c.obj (.text.scalbn)
                  00002fb4    000000d8     libclang_rt.builtins.a : addsf3.S.obj (.text)
                  0000308c    000000d0     inv_mpu.o (.text.mpu_set_dmp_state)
                  0000315c    000000a8     inv_mpu.o (.text.mpu_configure_fifo)
                  00003204    000000a4     inv_mpu.o (.text.mpu_read_fifo_stream)
                  000032a8    000000a2     libclang_rt.builtins.a : udivmoddi4.S.obj (.text)
                  0000334a    00000002                            : aeabi_div0.c.obj (.text.__aeabi_idiv0)
                  0000334c    0000008c                            : mulsf3.S.obj (.text.__mulsf3)
                  000033d8    00000084     inv_mpu.o (.text.mpu_set_accel_fsr)
                  0000345c    00000084     inv_mpu.o (.text.mpu_set_lpf)
                  000034e0    00000082     libclang_rt.builtins.a : divsf3.S.obj (.text.__divsf3)
                  00003562    00000002                            : aeabi_div0.c.obj (.text.__aeabi_ldiv0)
                  00003564    0000007c     mpu6050.o (.text.mpu6050_init)
                  000035e0    0000007c     mspm0_i2c.o (.text.mspm0_i2c_write)
                  0000365c    0000007c     libc.a : copy_decompress_lzss.c.obj (.text:decompress:lzss)
                  000036d8    00000078     main.o (.text.main)
                  00003750    00000074     libclang_rt.builtins.a : comparedf2.c.obj (.text.__gedf2)
                  000037c4    0000000c     inv_mpu_dmp_motion_driver.o (.text.dmp_register_android_orient_cb)
                  000037d0    00000074     libclang_rt.builtins.a : truncdfsf2.S.obj (.text.__truncdfsf2)
                  00003844    00000074     mspm0_i2c.o (.text.mspm0_i2c_read)
                  000038b8    00000070     ti_msp_dl_config.o (.text.SYSCFG_DL_HC06_init)
                  00003928    0000006c     inv_mpu.o (.text.mpu_write_mem)
                  00003994    00000068     ti_msp_dl_config.o (.text.SYSCFG_DL_I2C_MPU6050_init)
                  000039fc    00000068     libclang_rt.builtins.a : comparedf2.c.obj (.text.__ledf2)
                  00003a64    00000068     inv_mpu_dmp_motion_driver.o (.text.dmp_set_fifo_rate)
                  00003acc    00000066     libc.a : _printfi.c.obj (.text._mcpy)
                  00003b32    00000002     mpu6050.o (.text.android_orient_cb)
                  00003b34    00000062     libclang_rt.builtins.a : aeabi_dcmp.S.obj (.text.__aeabi_dcmp)
                  00003b96    0000005e     driverlib.a : dl_i2c.o (.text.DL_I2C_fillControllerTXFIFO)
                  00003bf4    0000005c     usart.o (.text.UART0_IRQHandler)
                  00003c50    0000005c     usart.o (.text.UART1_IRQHandler)
                  00003cac    0000005c     usart.o (.text.UART2_IRQHandler)
                  00003d08    0000005c     usart.o (.text.UART3_IRQHandler)
                  00003d64    0000005c     libc.a : s_frexp.c.obj (.text.frexp)
                  00003dc0    00000058            : _ltoa.c.obj (.text.__TI_ltoa)
                  00003e18    00000058            : _printfi.c.obj (.text._pconv_f)
                  00003e70    00000056     libclang_rt.builtins.a : aeabi_idivmod.S.obj (.text.__aeabi_idivmod)
                  00003ec6    00000052     libc.a : _printfi.c.obj (.text._ecpy)
                  00003f18    0000004a     libclang_rt.builtins.a : fixdfsi.S.obj (.text.__fixdfsi)
                  00003f62    00000002     mpu6050.o (.text.tap_cb)
                  00003f64    00000048     driverlib.a : dl_uart.o (.text.DL_UART_init)
                  00003fac    00000048     usart.o (.text.USART_Printf)
                  00003ff4    00000044     ti_msp_dl_config.o (.text.SYSCFG_DL_GPIO_init)
                  00004038    00000040     ti_msp_dl_config.o (.text.SYSCFG_DL_SYSCTL_init)
                  00004078    00000040     ti_msp_dl_config.o (.text.SYSCFG_DL_initPower)
                  000040b8    00000040     libclang_rt.builtins.a : aeabi_uidivmod.S.obj (.text.__aeabi_uidivmod)
                  000040f8    00000040                            : extendsfdf2.S.obj (.text.__extendsfdf2)
                  00004138    00000040     libc.a : atoi.c.obj (.text.atoi)
                  00004178    0000003c     driverlib.a : dl_i2c.o (.text.DL_I2C_flushControllerTXFIFO)
                  000041b4    0000003c     libclang_rt.builtins.a : floatsisf.S.obj (.text.__floatsisf)
                  000041f0    0000003c     libc.a : autoinit.c.obj (.text:__TI_auto_init_nobinit_nopinit)
                  0000422c    0000003a     libclang_rt.builtins.a : muldsi3.S.obj (.text.__muldsi3)
                  00004266    00000002     --HOLE-- [fill = 0]
                  00004268    00000038     usart.o (.text.USART_Init)
                  000042a0    00000038     libclang_rt.builtins.a : fixsfsi.S.obj (.text.__fixsfsi)
                  000042d8    00000030     ti_msp_dl_config.o (.text.SYSCFG_DL_SYSTICK_init)
                  00004308    00000030     libc.a : _printfi.c.obj (.text._fcpy)
                  00004338    00000030     inv_mpu.o (.text.mpu_get_accel_fsr)
                  00004368    0000002c     libclang_rt.builtins.a : floatsidf.S.obj (.text.__floatsidf)
                  00004394    0000002c     libc.a : vsprintf.c.obj (.text.vsprintf)
                  000043c0    00000028     libclang_rt.builtins.a : floatunsisf.S.obj (.text.__floatunsisf)
                  000043e8    00000028     libc.a : boot_cortex_m.c.obj (.text:_c_int00_noargs)
                  00004410    00000026     driverlib.a : dl_i2c.o (.text.DL_I2C_setClockConfig)
                  00004436    00000002     --HOLE-- [fill = 0]
                  00004438    00000024     libclang_rt.builtins.a : muldi3.S.obj (.text.__muldi3)
                  0000445c    00000022     libc.a : memccpy.c.obj (.text.memccpy)
                  0000447e    00000002     --HOLE-- [fill = 0]
                  00004480    00000020     inv_mpu.o (.text.mpu_get_gyro_fsr)
                  000044a0    0000001e     libclang_rt.builtins.a : ashldi3.S.obj (.text.__ashldi3)
                  000044be    0000001c     ti_msp_dl_config.o (.text.SYSCFG_DL_init)
                  000044da    00000002     --HOLE-- [fill = 0]
                  000044dc    0000001c     inv_mpu_dmp_motion_driver.o (.text.dmp_load_motion_driver_firmware)
                  000044f8    0000001c     inv_mpu.o (.text.mpu_get_sample_rate)
                  00004514    00000018     libc.a : vsprintf.c.obj (.text._outs)
                  0000452c    00000018     mspm0_clock.o (.text.mspm0_get_clock_ms)
                  00004544    00000016     libc.a : copy_zero_init.c.obj (.text:decompress:ZI:__TI_zero_init_nomemset)
                  0000455a    00000002     --HOLE-- [fill = 0]
                  0000455c    00000014     libclang_rt.builtins.a : aeabi_uldivmod.S.obj (.text.__aeabi_uldivmod)
                  00004570    00000014     libc.a : _printfi.c.obj (.text.strchr)
                  00004584    00000012     driverlib.a : dl_uart.o (.text.DL_UART_setClockConfig)
                  00004596    00000012     libc.a : memcpy16.S.obj (.text:TI_memcpy_small)
                  000045a8    00000012            : copy_decompress_none.c.obj (.text:decompress:none)
                  000045ba    00000002     --HOLE-- [fill = 0]
                  000045bc    00000010     mspm0_clock.o (.text.SysTick_Handler)
                  000045cc    00000010     mspm0_clock.o (.text.mspm0_delay_ms)
                  000045dc    00000010     libc.a : wcslen.c.obj (.text.wcslen)
                  000045ec    0000000e     libclang_rt.builtins.a : aeabi_memset.S.obj (.text.__aeabi_memset)
                  000045fa    0000000e     libc.a : _printfi.c.obj (.text.strlen)
                  00004608    0000000e            : memset16.S.obj (.text:TI_memset_small)
                  00004616    00000002     --HOLE-- [fill = 0]
                  00004618    0000000c     inv_mpu_dmp_motion_driver.o (.text.dmp_register_tap_cb)
                  00004624    0000000a     driverlib.a : dl_common.o (.text.DL_Common_delayCycles)
                  0000462e    0000000a     libc.a : _printfi.c.obj (.text.OUTLINED_FUNCTION_0)
                  00004638    00000010     libclang_rt.builtins.a : adddf3.S.obj (.tramp.__aeabi_dsub.1)
                  00004648    0000000a     libc.a : e_asin.c.obj (.text.OUTLINED_FUNCTION_0)
                  00004652    00000002     --HOLE-- [fill = 0]
                  00004654    00000010     libclang_rt.builtins.a : muldf3.S.obj (.tramp.__aeabi_dmul.1)
                  00004664    0000000a     libc.a : s_atan.c.obj (.text.OUTLINED_FUNCTION_0)
                  0000466e    0000000a            : _printfi.c.obj (.text.OUTLINED_FUNCTION_1)
                  00004678    0000000a            : e_asin.c.obj (.text.OUTLINED_FUNCTION_1)
                  00004682    0000000a            : e_asin.c.obj (.text.OUTLINED_FUNCTION_3)
                  0000468c    00000010     libclang_rt.builtins.a : divdf3.S.obj (.tramp.__aeabi_ddiv.1)
                  0000469c    0000000a     libc.a : vsprintf.c.obj (.text._outc)
                  000046a6    00000008            : s_atan.c.obj (.text.OUTLINED_FUNCTION_2)
                  000046ae    00000002     --HOLE-- [fill = 0]
                  000046b0    00000008            : aeabi_portable.c.obj (.text.__aeabi_errno_addr)
                  000046b8    00000008     libclang_rt.builtins.a : aeabi_memcpy.S.obj (.text.__aeabi_memcpy)
                  000046c0    00000006     libc.a : s_atan.c.obj (.text.OUTLINED_FUNCTION_1)
                  000046c6    00000002     --HOLE-- [fill = 0]
                  000046c8    00000010     libclang_rt.builtins.a : adddf3.S.obj (.tramp.__aeabi_dadd.1)
                  000046d8    00000006     libc.a : e_asin.c.obj (.text.OUTLINED_FUNCTION_2)
                  000046de    00000006            : exit.c.obj (.text:abort)
                  000046e4    00000004     libsysbm.a : hostexit.c.obj (.text.HOSTexit)
                  000046e8    00000004     libc.a : e_asin.c.obj (.text.OUTLINED_FUNCTION_4)
                  000046ec    00000004     startup_mspm0g350x_ticlang.o (.text.Reset_Handler)
                  000046f0    00000004     libc.a : pre_init.c.obj (.text._system_pre_init)
                  000046f4    0000000c     --HOLE-- [fill = 0]

.cinit     0    000054e0    00000040     
                  000054e0    0000001b     (.cinit..data.load) [load image, compression = lzss]
                  000054fb    00000001     --HOLE-- [fill = 0]
                  000054fc    0000000c     (__TI_handler_table)
                  00005508    00000008     (.cinit..bss.load) [load image, compression = zero_init]
                  00005510    00000010     (__TI_cinit_table)

.rodata    0    00004700    00000de0     
                  00004700    00000bf6     inv_mpu_dmp_motion_driver.o (.rodata.dmp_memory)
                  000052f6    0000000a     ti_msp_dl_config.o (.rodata.gHC06Config)
                  00005300    00000101     libc.a : aeabi_ctype.S.obj (.rodata:__aeabi_ctype_table_)
                  00005401    00000006     main.o (.rodata.str1.15159059442110792349.1)
                  00005407    00000001     --HOLE-- [fill = 0]
                  00005408    00000040     libc.a : s_atan.c.obj (.rodata.cst32)
                  00005448    00000028     inv_mpu.o (.rodata.test)
                  00005470    0000001e     inv_mpu.o (.rodata.reg)
                  0000548e    00000011     libc.a : _printfi.c.obj (.rodata.str1.10348868589481759720.1)
                  0000549f    00000011            : _printfi.c.obj (.rodata.str1.15363888844622738466.1)
                  000054b0    00000010     inv_mpu.o (.rodata.cst8)
                  000054c0    0000000c     inv_mpu.o (.rodata.hw)
                  000054cc    00000009     main.o (.rodata.str1.8154729771448623357.1)
                  000054d5    00000003     inv_mpu_dmp_motion_driver.o (.rodata..L__const.dmp_set_orientation.accel_axes)
                  000054d8    00000003     inv_mpu_dmp_motion_driver.o (.rodata..L__const.dmp_set_orientation.gyro_axes)
                  000054db    00000002     ti_msp_dl_config.o (.rodata.gHC06ClockConfig)
                  000054dd    00000002     ti_msp_dl_config.o (.rodata.gI2C_MPU6050ClockConfig)
                  000054df    00000001     --HOLE-- [fill = 0]

.init_array 
*          0    00000000    00000000     UNINITIALIZED

.binit     0    00000000    00000000     

.data      0    20200000    00000463     UNINITIALIZED
                  20200000    00000100     usart.o (.data.usart0_str)
                  20200100    00000100     usart.o (.data.usart1_str)
                  20200200    00000100     usart.o (.data.usart2_str)
                  20200300    00000100     usart.o (.data.usart3_str)
                  20200400    0000002c     inv_mpu.o (.data.st)
                  2020042c    00000004     libc.a : aeabi_portable.c.obj (.data.__aeabi_errno)
                  20200430    00000004     inv_mpu_dmp_motion_driver.o (.data.dmp.0)
                  20200434    00000004     inv_mpu_dmp_motion_driver.o (.data.dmp.1)
                  20200438    00000004     usart.o (.data.usart0_str_index)
                  2020043c    00000004     usart.o (.data.usart0_str_received)
                  20200440    00000004     usart.o (.data.usart1_str_index)
                  20200444    00000004     usart.o (.data.usart1_str_received)
                  20200448    00000004     usart.o (.data.usart2_str_index)
                  2020044c    00000004     usart.o (.data.usart2_str_received)
                  20200450    00000004     usart.o (.data.usart3_str_index)
                  20200454    00000004     usart.o (.data.usart3_str_received)
                  20200458    00000002     inv_mpu_dmp_motion_driver.o (.data.dmp.2)
                  2020045a    00000001     inv_mpu_dmp_motion_driver.o (.data.dmp.5)
                  2020045b    00000001     usart.o (.data.usart0_ch)
                  2020045c    00000002     inv_mpu_dmp_motion_driver.o (.data.dmp.3)
                  2020045e    00000001     usart.o (.data.usart1_ch)
                  2020045f    00000001     usart.o (.data.usart2_ch)
                  20200460    00000002     inv_mpu_dmp_motion_driver.o (.data.dmp.4)
                  20200462    00000001     usart.o (.data.usart3_ch)

.bss       0    20200464    00000033     UNINITIALIZED
                  20200464    00000010     (.common:quat)
                  20200474    00000006     (.common:accel)
                  2020047a    00000006     (.common:gyro)
                  20200480    00000004     (.common:pitch)
                  20200484    00000004     (.common:roll)
                  20200488    00000004     (.common:sensor_timestamp)
                  2020048c    00000004     (.common:tick_ms)
                  20200490    00000004     (.common:yaw)
                  20200494    00000002     (.common:sensors)
                  20200496    00000001     (.common:more)

.stack     0    20207e00    00000200     UNINITIALIZED
                  20207e00    00000004     libc.a : boot_cortex_m.c.obj (.stack)
                  20207e04    000001fc     --HOLE--

__llvm_prf_cnts 
*          0    20200000    00000000     UNINITIALIZED

__llvm_prf_bits 
*          0    20200000    00000000     UNINITIALIZED

MODULE SUMMARY

       Module                         code    ro data   rw data
       ------                         ----    -------   -------
    .\
       ti_msp_dl_config.o             488     14        0      
       startup_mspm0g350x_ticlang.o   6       192       0      
       main.o                         120     15        0      
    +--+------------------------------+-------+---------+---------+
       Total:                         614     221       0      
                                                               
    .\app\MPU6050\
       inv_mpu_dmp_motion_driver.o    1848    3068      15     
       inv_mpu.o                      3228    98        44     
       mpu6050.o                      608     0         47     
    +--+------------------------------+-------+---------+---------+
       Total:                         5684    3166      106    
                                                               
    .\lib\delay\
       mspm0_clock.o                  56      0         4      
    +--+------------------------------+-------+---------+---------+
       Total:                         56      0         4      
                                                               
    .\lib\i2c\
       mspm0_i2c.o                    240     0         0      
    +--+------------------------------+-------+---------+---------+
       Total:                         240     0         0      
                                                               
    .\lib\usart\
       usart.o                        496     0         1060   
    +--+------------------------------+-------+---------+---------+
       Total:                         496     0         1060   
                                                               
    C:/TI/mspm0_sdk_2_04_00_06/source/ti/driverlib/lib/ticlang/m0p/mspm0g1x0x_g3x0x/driverlib.a
       dl_i2c.o                       192     0         0      
       dl_uart.o                      90      0         0      
       dl_common.o                    10      0         0      
    +--+------------------------------+-------+---------+---------+
       Total:                         292     0         0      
                                                               
    D:\CCS\ccs\tools\compiler\ti-cgt-armllvm_4.0.2.LTS\lib\armv6m-ti-none-eabi/c/libc.a
       _printfi.c.obj                 4510    34        0      
       e_asin.c.obj                   908     0         0      
       s_atan.c.obj                   784     64        0      
       e_atan2.c.obj                  392     0         0      
       e_sqrt.c.obj                   368     0         0      
       aeabi_ctype.S.obj              0       257       0      
       s_scalbn.c.obj                 216     0         0      
       copy_decompress_lzss.c.obj     124     0         0      
       s_frexp.c.obj                  92      0         0      
       _ltoa.c.obj                    88      0         0      
       vsprintf.c.obj                 78      0         0      
       atoi.c.obj                     64      0         0      
       autoinit.c.obj                 60      0         0      
       boot_cortex_m.c.obj            40      0         0      
       memccpy.c.obj                  34      0         0      
       copy_zero_init.c.obj           22      0         0      
       copy_decompress_none.c.obj     18      0         0      
       memcpy16.S.obj                 18      0         0      
       wcslen.c.obj                   16      0         0      
       memset16.S.obj                 14      0         0      
       aeabi_portable.c.obj           8       0         4      
       exit.c.obj                     6       0         0      
       pre_init.c.obj                 4       0         0      
    +--+------------------------------+-------+---------+---------+
       Total:                         7864    355       4      
                                                               
    D:\CCS\ccs\tools\compiler\ti-cgt-armllvm_4.0.2.LTS\lib\armv6m-ti-none-eabi/c/libsysbm.a
       hostexit.c.obj                 4       0         0      
    +--+------------------------------+-------+---------+---------+
       Total:                         4       0         0      
                                                               
    D:\CCS\ccs\tools\compiler\ti-cgt-armllvm_4.0.2.LTS\lib\armv6m-ti-none-eabi/libclang_rt.builtins.a
       adddf3.S.obj                   434     0         0      
       divdf3.S.obj                   284     0         0      
       muldf3.S.obj                   244     0         0      
       comparedf2.c.obj               220     0         0      
       addsf3.S.obj                   216     0         0      
       udivmoddi4.S.obj               162     0         0      
       mulsf3.S.obj                   140     0         0      
       divsf3.S.obj                   130     0         0      
       truncdfsf2.S.obj               116     0         0      
       aeabi_dcmp.S.obj               98      0         0      
       aeabi_idivmod.S.obj            86      0         0      
       fixdfsi.S.obj                  74      0         0      
       aeabi_uidivmod.S.obj           64      0         0      
       extendsfdf2.S.obj              64      0         0      
       floatsisf.S.obj                60      0         0      
       muldsi3.S.obj                  58      0         0      
       fixsfsi.S.obj                  56      0         0      
       floatsidf.S.obj                44      0         0      
       floatunsisf.S.obj              40      0         0      
       muldi3.S.obj                   36      0         0      
       ashldi3.S.obj                  30      0         0      
       aeabi_uldivmod.S.obj           20      0         0      
       aeabi_memset.S.obj             14      0         0      
       aeabi_memcpy.S.obj             8       0         0      
       aeabi_div0.c.obj               4       0         0      
    +--+------------------------------+-------+---------+---------+
       Total:                         2702    0         0      
                                                               
       Stack:                         0       0         512    
       Linker Generated:              0       63        0      
    +--+------------------------------+-------+---------+---------+
       Grand Total:                   17952   3805      1686   


LINKER GENERATED COPY TABLES

__TI_cinit_table @ 00005510 records: 2, size/record: 8, table size: 16
	.data: load addr=000054e0, load size=0000001b bytes, run addr=20200000, run size=00000463 bytes, compression=lzss
	.bss: load addr=00005508, load size=00000008 bytes, run addr=20200464, run size=00000033 bytes, compression=zero_init


LINKER GENERATED HANDLER TABLE

__TI_handler_table @ 000054fc records: 3, size/record: 4, table size: 12
	index: 0, handler: __TI_decompress_lzss
	index: 1, handler: __TI_decompress_none
	index: 2, handler: __TI_zero_init


FAR CALL TRAMPOLINES

callee name               trampoline name
   callee addr  tramp addr   call addr  call info
--------------  -----------  ---------  ----------------
__aeabi_dsub              $Tramp$TT$L$PI$$__aeabi_dsub
   00001d01     00004638     00004636   libc.a : _printfi.c.obj (.text.OUTLINED_FUNCTION_0)
__aeabi_dmul              $Tramp$TT$L$PI$$__aeabi_dmul
   00002d15     00004654     00004650   libc.a : e_asin.c.obj (.text.OUTLINED_FUNCTION_0)
                             0000466c          : s_atan.c.obj (.text.OUTLINED_FUNCTION_0)
                             00004680          : e_asin.c.obj (.text.OUTLINED_FUNCTION_1)
                             000046ac          : s_atan.c.obj (.text.OUTLINED_FUNCTION_2)
                             000046dc          : e_asin.c.obj (.text.OUTLINED_FUNCTION_2)
__aeabi_ddiv              $Tramp$TT$L$PI$$__aeabi_ddiv
   00002925     0000468c     0000468a   libc.a : e_asin.c.obj (.text.OUTLINED_FUNCTION_3)
__aeabi_dadd              $Tramp$TT$L$PI$$__aeabi_dadd
   00001d0b     000046c8     000046c4   libc.a : s_atan.c.obj (.text.OUTLINED_FUNCTION_1)
                             000046ea          : e_asin.c.obj (.text.OUTLINED_FUNCTION_4)

[4 trampolines]
[9 trampoline calls]


GLOBAL SYMBOLS: SORTED ALPHABETICALLY BY Name 

address   name                           
-------   ----                           
00001e93  ADC0_IRQHandler                
00001e93  ADC1_IRQHandler                
00001e93  AES_IRQHandler                 
000046e4  C$$EXIT                        
00001e93  CANFD0_IRQHandler              
00001e93  DAC0_IRQHandler                
00004625  DL_Common_delayCycles          
00003b97  DL_I2C_fillControllerTXFIFO    
00004179  DL_I2C_flushControllerTXFIFO   
00004411  DL_I2C_setClockConfig          
00003f65  DL_UART_init                   
00004585  DL_UART_setClockConfig         
00001e93  DMA_IRQHandler                 
00001e93  Default_Handler                
00001e93  GROUP0_IRQHandler              
00001e93  GROUP1_IRQHandler              
000046e5  HOSTexit                       
00001e93  HardFault_Handler              
00001e93  I2C0_IRQHandler                
00001e93  I2C1_IRQHandler                
00001e93  NMI_Handler                    
00001e93  PendSV_Handler                 
00001e93  RTC_IRQHandler                 
000015c5  Read_Quad                      
000046ed  Reset_Handler                  
00001e93  SPI0_IRQHandler                
00001e93  SPI1_IRQHandler                
00001e93  SVC_Handler                    
00003ff5  SYSCFG_DL_GPIO_init            
000038b9  SYSCFG_DL_HC06_init            
00003995  SYSCFG_DL_I2C_MPU6050_init     
00004039  SYSCFG_DL_SYSCTL_init          
000042d9  SYSCFG_DL_SYSTICK_init         
000044bf  SYSCFG_DL_init                 
00004079  SYSCFG_DL_initPower            
000045bd  SysTick_Handler                
00001e93  TIMA0_IRQHandler               
00001e93  TIMA1_IRQHandler               
00001e93  TIMG0_IRQHandler               
00001e93  TIMG12_IRQHandler              
00001e93  TIMG6_IRQHandler               
00001e93  TIMG7_IRQHandler               
00001e93  TIMG8_IRQHandler               
00004597  TI_memcpy_small                
00004609  TI_memset_small                
00003bf5  UART0_IRQHandler               
00003c51  UART1_IRQHandler               
00003cad  UART2_IRQHandler               
00003d09  UART3_IRQHandler               
00004269  USART_Init                     
00003fad  USART_Printf                   
20208000  __STACK_END                    
00000200  __STACK_SIZE                   
00000000  __TI_ATRegion0_region_sz       
00000000  __TI_ATRegion0_src_addr        
00000000  __TI_ATRegion0_trg_addr        
00000000  __TI_ATRegion1_region_sz       
00000000  __TI_ATRegion1_src_addr        
00000000  __TI_ATRegion1_trg_addr        
00000000  __TI_ATRegion2_region_sz       
00000000  __TI_ATRegion2_src_addr        
00000000  __TI_ATRegion2_trg_addr        
00005510  __TI_CINIT_Base                
00005520  __TI_CINIT_Limit               
00005520  __TI_CINIT_Warm                
000054fc  __TI_Handler_Table_Base        
00005508  __TI_Handler_Table_Limit       
000041f1  __TI_auto_init_nobinit_nopinit 
0000365d  __TI_decompress_lzss           
000045a9  __TI_decompress_none           
00003dc1  __TI_ltoa                      
ffffffff  __TI_pprof_out_hndl            
000000c1  __TI_printfi                   
ffffffff  __TI_prof_data_size            
ffffffff  __TI_prof_data_start           
00000000  __TI_static_base__             
00004545  __TI_zero_init_nomemset        
00001d0b  __adddf3                       
00002fbf  __addsf3                       
00005300  __aeabi_ctype_table_           
00005300  __aeabi_ctype_table_C          
000037d1  __aeabi_d2f                    
00003f19  __aeabi_d2iz                   
00001d0b  __aeabi_dadd                   
00003b35  __aeabi_dcmpeq                 
00003b71  __aeabi_dcmpge                 
00003b85  __aeabi_dcmpgt                 
00003b5d  __aeabi_dcmple                 
00003b49  __aeabi_dcmplt                 
00002925  __aeabi_ddiv                   
00002d15  __aeabi_dmul                   
00001d01  __aeabi_dsub                   
2020042c  __aeabi_errno                  
000046b1  __aeabi_errno_addr             
000040f9  __aeabi_f2d                    
000042a1  __aeabi_f2iz                   
00002fbf  __aeabi_fadd                   
000034e1  __aeabi_fdiv                   
0000334d  __aeabi_fmul                   
00002fb5  __aeabi_fsub                   
00004369  __aeabi_i2d                    
000041b5  __aeabi_i2f                    
00003e71  __aeabi_idiv                   
0000334b  __aeabi_idiv0                  
00003e71  __aeabi_idivmod                
00003563  __aeabi_ldiv0                  
000044a1  __aeabi_llsl                   
00004439  __aeabi_lmul                   
000046b9  __aeabi_memcpy                 
000046b9  __aeabi_memcpy4                
000046b9  __aeabi_memcpy8                
000045ed  __aeabi_memset                 
000045ed  __aeabi_memset4                
000045ed  __aeabi_memset8                
000043c1  __aeabi_ui2f                   
000040b9  __aeabi_uidiv                  
000040b9  __aeabi_uidivmod               
0000455d  __aeabi_uldivmod               
000044a1  __ashldi3                      
ffffffff  __binit__                      
000039fd  __cmpdf2                       
00002925  __divdf3                       
000034e1  __divsf3                       
000039fd  __eqdf2                        
000040f9  __extendsfdf2                  
00003f19  __fixdfsi                      
000042a1  __fixsfsi                      
00004369  __floatsidf                    
000041b5  __floatsisf                    
000043c1  __floatunsisf                  
00003751  __gedf2                        
00003751  __gtdf2                        
000039fd  __ledf2                        
000039fd  __ltdf2                        
UNDEFED   __mpu_init                     
00002d15  __muldf3                       
00004439  __muldi3                       
0000422d  __muldsi3                      
0000334d  __mulsf3                       
000039fd  __nedf2                        
20207e00  __stack                        
20200000  __start___llvm_prf_bits        
20200000  __start___llvm_prf_cnts        
20200000  __stop___llvm_prf_bits         
20200000  __stop___llvm_prf_cnts         
00001d01  __subdf3                       
00002fb5  __subsf3                       
000037d1  __truncdfsf2                   
000032a9  __udivmoddi4                   
000043e9  _c_int00_noargs                
UNDEFED   _system_post_cinit             
000046f1  _system_pre_init               
000046df  abort                          
20200474  accel                          
00000a91  asin                           
00000a91  asinl                          
00000df5  atan                           
00001e95  atan2                          
00001e95  atan2l                         
00000df5  atanl                          
00004139  atoi                           
ffffffff  binit                          
000010ed  dmp_enable_feature             
000044dd  dmp_load_motion_driver_firmware
00001b55  dmp_read_fifo                  
000037c5  dmp_register_android_orient_cb 
00004619  dmp_register_tap_cb            
00003a65  dmp_set_fifo_rate              
00002a31  dmp_set_orientation            
0000259d  dmp_set_tap_thresh             
00003d65  frexp                          
00003d65  frexpl                         
2020047a  gyro                           
000054c0  hw                             
00000000  interruptVectors               
00002edd  ldexp                          
00002edd  ldexpl                         
000036d9  main                           
0000445d  memccpy                        
20200496  more                           
00003565  mpu6050_init                   
0000315d  mpu_configure_fifo             
00004339  mpu_get_accel_fsr              
00004481  mpu_get_gyro_fsr               
000044f9  mpu_get_sample_rate            
000026d1  mpu_init                       
0000201d  mpu_load_firmware              
00001981  mpu_lp_accel_mode              
00003205  mpu_read_fifo_stream           
00002311  mpu_reset_fifo                 
000033d9  mpu_set_accel_fsr              
00002b35  mpu_set_bypass                 
0000308d  mpu_set_dmp_state              
0000345d  mpu_set_lpf                    
00002c2d  mpu_set_sample_rate            
00002df9  mpu_set_sensors                
00003929  mpu_write_mem                  
000045cd  mspm0_delay_ms                 
0000452d  mspm0_get_clock_ms             
00003845  mspm0_i2c_read                 
000035e1  mspm0_i2c_write                
20200480  pitch                          
20200464  quat                           
00005470  reg                            
20200484  roll                           
00002edd  scalbn                         
00002edd  scalbnl                        
20200488  sensor_timestamp               
20200494  sensors                        
000021a1  sqrt                           
000021a1  sqrtl                          
00005448  test                           
2020048c  tick_ms                        
2020045b  usart0_ch                      
20200000  usart0_str                     
20200438  usart0_str_index               
2020043c  usart0_str_received            
2020045e  usart1_ch                      
20200100  usart1_str                     
20200440  usart1_str_index               
20200444  usart1_str_received            
2020045f  usart2_ch                      
20200200  usart2_str                     
20200448  usart2_str_index               
2020044c  usart2_str_received            
20200462  usart3_ch                      
20200300  usart3_str                     
20200450  usart3_str_index               
20200454  usart3_str_received            
00004395  vsprintf                       
000045dd  wcslen                         
20200490  yaw                            


GLOBAL SYMBOLS: SORTED BY Symbol Address 

address   name                           
-------   ----                           
00000000  __TI_ATRegion0_region_sz       
00000000  __TI_ATRegion0_src_addr        
00000000  __TI_ATRegion0_trg_addr        
00000000  __TI_ATRegion1_region_sz       
00000000  __TI_ATRegion1_src_addr        
00000000  __TI_ATRegion1_trg_addr        
00000000  __TI_ATRegion2_region_sz       
00000000  __TI_ATRegion2_src_addr        
00000000  __TI_ATRegion2_trg_addr        
00000000  __TI_static_base__             
00000000  interruptVectors               
000000c1  __TI_printfi                   
00000200  __STACK_SIZE                   
00000a91  asin                           
00000a91  asinl                          
00000df5  atan                           
00000df5  atanl                          
000010ed  dmp_enable_feature             
000015c5  Read_Quad                      
00001981  mpu_lp_accel_mode              
00001b55  dmp_read_fifo                  
00001d01  __aeabi_dsub                   
00001d01  __subdf3                       
00001d0b  __adddf3                       
00001d0b  __aeabi_dadd                   
00001e93  ADC0_IRQHandler                
00001e93  ADC1_IRQHandler                
00001e93  AES_IRQHandler                 
00001e93  CANFD0_IRQHandler              
00001e93  DAC0_IRQHandler                
00001e93  DMA_IRQHandler                 
00001e93  Default_Handler                
00001e93  GROUP0_IRQHandler              
00001e93  GROUP1_IRQHandler              
00001e93  HardFault_Handler              
00001e93  I2C0_IRQHandler                
00001e93  I2C1_IRQHandler                
00001e93  NMI_Handler                    
00001e93  PendSV_Handler                 
00001e93  RTC_IRQHandler                 
00001e93  SPI0_IRQHandler                
00001e93  SPI1_IRQHandler                
00001e93  SVC_Handler                    
00001e93  TIMA0_IRQHandler               
00001e93  TIMA1_IRQHandler               
00001e93  TIMG0_IRQHandler               
00001e93  TIMG12_IRQHandler              
00001e93  TIMG6_IRQHandler               
00001e93  TIMG7_IRQHandler               
00001e93  TIMG8_IRQHandler               
00001e95  atan2                          
00001e95  atan2l                         
0000201d  mpu_load_firmware              
000021a1  sqrt                           
000021a1  sqrtl                          
00002311  mpu_reset_fifo                 
0000259d  dmp_set_tap_thresh             
000026d1  mpu_init                       
00002925  __aeabi_ddiv                   
00002925  __divdf3                       
00002a31  dmp_set_orientation            
00002b35  mpu_set_bypass                 
00002c2d  mpu_set_sample_rate            
00002d15  __aeabi_dmul                   
00002d15  __muldf3                       
00002df9  mpu_set_sensors                
00002edd  ldexp                          
00002edd  ldexpl                         
00002edd  scalbn                         
00002edd  scalbnl                        
00002fb5  __aeabi_fsub                   
00002fb5  __subsf3                       
00002fbf  __addsf3                       
00002fbf  __aeabi_fadd                   
0000308d  mpu_set_dmp_state              
0000315d  mpu_configure_fifo             
00003205  mpu_read_fifo_stream           
000032a9  __udivmoddi4                   
0000334b  __aeabi_idiv0                  
0000334d  __aeabi_fmul                   
0000334d  __mulsf3                       
000033d9  mpu_set_accel_fsr              
0000345d  mpu_set_lpf                    
000034e1  __aeabi_fdiv                   
000034e1  __divsf3                       
00003563  __aeabi_ldiv0                  
00003565  mpu6050_init                   
000035e1  mspm0_i2c_write                
0000365d  __TI_decompress_lzss           
000036d9  main                           
00003751  __gedf2                        
00003751  __gtdf2                        
000037c5  dmp_register_android_orient_cb 
000037d1  __aeabi_d2f                    
000037d1  __truncdfsf2                   
00003845  mspm0_i2c_read                 
000038b9  SYSCFG_DL_HC06_init            
00003929  mpu_write_mem                  
00003995  SYSCFG_DL_I2C_MPU6050_init     
000039fd  __cmpdf2                       
000039fd  __eqdf2                        
000039fd  __ledf2                        
000039fd  __ltdf2                        
000039fd  __nedf2                        
00003a65  dmp_set_fifo_rate              
00003b35  __aeabi_dcmpeq                 
00003b49  __aeabi_dcmplt                 
00003b5d  __aeabi_dcmple                 
00003b71  __aeabi_dcmpge                 
00003b85  __aeabi_dcmpgt                 
00003b97  DL_I2C_fillControllerTXFIFO    
00003bf5  UART0_IRQHandler               
00003c51  UART1_IRQHandler               
00003cad  UART2_IRQHandler               
00003d09  UART3_IRQHandler               
00003d65  frexp                          
00003d65  frexpl                         
00003dc1  __TI_ltoa                      
00003e71  __aeabi_idiv                   
00003e71  __aeabi_idivmod                
00003f19  __aeabi_d2iz                   
00003f19  __fixdfsi                      
00003f65  DL_UART_init                   
00003fad  USART_Printf                   
00003ff5  SYSCFG_DL_GPIO_init            
00004039  SYSCFG_DL_SYSCTL_init          
00004079  SYSCFG_DL_initPower            
000040b9  __aeabi_uidiv                  
000040b9  __aeabi_uidivmod               
000040f9  __aeabi_f2d                    
000040f9  __extendsfdf2                  
00004139  atoi                           
00004179  DL_I2C_flushControllerTXFIFO   
000041b5  __aeabi_i2f                    
000041b5  __floatsisf                    
000041f1  __TI_auto_init_nobinit_nopinit 
0000422d  __muldsi3                      
00004269  USART_Init                     
000042a1  __aeabi_f2iz                   
000042a1  __fixsfsi                      
000042d9  SYSCFG_DL_SYSTICK_init         
00004339  mpu_get_accel_fsr              
00004369  __aeabi_i2d                    
00004369  __floatsidf                    
00004395  vsprintf                       
000043c1  __aeabi_ui2f                   
000043c1  __floatunsisf                  
000043e9  _c_int00_noargs                
00004411  DL_I2C_setClockConfig          
00004439  __aeabi_lmul                   
00004439  __muldi3                       
0000445d  memccpy                        
00004481  mpu_get_gyro_fsr               
000044a1  __aeabi_llsl                   
000044a1  __ashldi3                      
000044bf  SYSCFG_DL_init                 
000044dd  dmp_load_motion_driver_firmware
000044f9  mpu_get_sample_rate            
0000452d  mspm0_get_clock_ms             
00004545  __TI_zero_init_nomemset        
0000455d  __aeabi_uldivmod               
00004585  DL_UART_setClockConfig         
00004597  TI_memcpy_small                
000045a9  __TI_decompress_none           
000045bd  SysTick_Handler                
000045cd  mspm0_delay_ms                 
000045dd  wcslen                         
000045ed  __aeabi_memset                 
000045ed  __aeabi_memset4                
000045ed  __aeabi_memset8                
00004609  TI_memset_small                
00004619  dmp_register_tap_cb            
00004625  DL_Common_delayCycles          
000046b1  __aeabi_errno_addr             
000046b9  __aeabi_memcpy                 
000046b9  __aeabi_memcpy4                
000046b9  __aeabi_memcpy8                
000046df  abort                          
000046e4  C$$EXIT                        
000046e5  HOSTexit                       
000046ed  Reset_Handler                  
000046f1  _system_pre_init               
00005300  __aeabi_ctype_table_           
00005300  __aeabi_ctype_table_C          
00005448  test                           
00005470  reg                            
000054c0  hw                             
000054fc  __TI_Handler_Table_Base        
00005508  __TI_Handler_Table_Limit       
00005510  __TI_CINIT_Base                
00005520  __TI_CINIT_Limit               
00005520  __TI_CINIT_Warm                
20200000  __start___llvm_prf_bits        
20200000  __start___llvm_prf_cnts        
20200000  __stop___llvm_prf_bits         
20200000  __stop___llvm_prf_cnts         
20200000  usart0_str                     
20200100  usart1_str                     
20200200  usart2_str                     
20200300  usart3_str                     
2020042c  __aeabi_errno                  
20200438  usart0_str_index               
2020043c  usart0_str_received            
20200440  usart1_str_index               
20200444  usart1_str_received            
20200448  usart2_str_index               
2020044c  usart2_str_received            
20200450  usart3_str_index               
20200454  usart3_str_received            
2020045b  usart0_ch                      
2020045e  usart1_ch                      
2020045f  usart2_ch                      
20200462  usart3_ch                      
20200464  quat                           
20200474  accel                          
2020047a  gyro                           
20200480  pitch                          
20200484  roll                           
20200488  sensor_timestamp               
2020048c  tick_ms                        
20200490  yaw                            
20200494  sensors                        
20200496  more                           
20207e00  __stack                        
20208000  __STACK_END                    
ffffffff  __TI_pprof_out_hndl            
ffffffff  __TI_prof_data_size            
ffffffff  __TI_prof_data_start           
ffffffff  __binit__                      
ffffffff  binit                          
UNDEFED   __mpu_init                     
UNDEFED   _system_post_cinit             

[232 symbols]
